; ModuleID = '63/933.c'
source_filename = "63/933.c"
target datalayout = "e-m:e-p270:32:32-p271:32:32-p272:64:64-i64:64-f80:128-n8:16:32:64-S128"
target triple = "x86_64-pc-linux-gnu"

@.str = private unnamed_addr constant [8 x i8] c"%d %d%c\00", align 1
@.str.1 = private unnamed_addr constant [3 x i8] c"%d\00", align 1
@.str.2 = private unnamed_addr constant [3 x i8] c"%c\00", align 1
@.str.3 = private unnamed_addr constant [4 x i8] c"%d \00", align 1
@.str.4 = private unnamed_addr constant [4 x i8] c"%d\0A\00", align 1

; Function Attrs: noinline nounwind uwtable
define dso_local void @main() #0 {
  %1 = alloca i32, align 4
  %2 = alloca i32, align 4
  %3 = alloca [100 x [100 x i32]], align 16
  %4 = alloca [100 x [100 x i32]], align 16
  %5 = alloca [100 x [100 x i32]], align 16
  %6 = alloca i32, align 4
  %7 = alloca i32, align 4
  %8 = alloca i32, align 4
  %9 = alloca i32, align 4
  %10 = alloca i32, align 4
  %11 = alloca i8, align 1
  %12 = bitcast [100 x [100 x i32]]* %5 to i8*
  call void @llvm.memset.p0i8.i64(i8* align 16 %12, i8 0, i64 40000, i1 false)
  %13 = call i32 (i8*, ...) @__isoc99_scanf(i8* getelementptr inbounds ([8 x i8], [8 x i8]* @.str, i64 0, i64 0), i32* %1, i32* %2, i8* %11)
  store i32 0, i32* %6, align 4
  br label %14

14:                                               ; preds = %44, %0
  %15 = load i32, i32* %6, align 4
  %16 = load i32, i32* %1, align 4
  %17 = sub nsw i32 %16, 1
  %18 = icmp sle i32 %15, %17
  br i1 %18, label %19, label %47

19:                                               ; preds = %14
  store i32 0, i32* %7, align 4
  br label %20

20:                                               ; preds = %40, %19
  %21 = load i32, i32* %7, align 4
  %22 = load i32, i32* %2, align 4
  %23 = icmp sle i32 %21, %22
  br i1 %23, label %24, label %43

24:                                               ; preds = %20
  %25 = load i32, i32* %7, align 4
  %26 = load i32, i32* %2, align 4
  %27 = sub nsw i32 %26, 1
  %28 = icmp sle i32 %25, %27
  br i1 %28, label %29, label %37

29:                                               ; preds = %24
  %30 = load i32, i32* %6, align 4
  %31 = sext i32 %30 to i64
  %32 = getelementptr inbounds [100 x [100 x i32]], [100 x [100 x i32]]* %3, i64 0, i64 %31
  %33 = load i32, i32* %7, align 4
  %34 = sext i32 %33 to i64
  %35 = getelementptr inbounds [100 x i32], [100 x i32]* %32, i64 0, i64 %34
  %36 = call i32 (i8*, ...) @__isoc99_scanf(i8* getelementptr inbounds ([3 x i8], [3 x i8]* @.str.1, i64 0, i64 0), i32* %35)
  br label %39

37:                                               ; preds = %24
  %38 = call i32 (i8*, ...) @__isoc99_scanf(i8* getelementptr inbounds ([3 x i8], [3 x i8]* @.str.2, i64 0, i64 0), i8* %11)
  br label %39

39:                                               ; preds = %37, %29
  br label %40

40:                                               ; preds = %39
  %41 = load i32, i32* %7, align 4
  %42 = add nsw i32 %41, 1
  store i32 %42, i32* %7, align 4
  br label %20

43:                                               ; preds = %20
  br label %44

44:                                               ; preds = %43
  %45 = load i32, i32* %6, align 4
  %46 = add nsw i32 %45, 1
  store i32 %46, i32* %6, align 4
  br label %14

47:                                               ; preds = %14
  %48 = call i32 (i8*, ...) @__isoc99_scanf(i8* getelementptr inbounds ([8 x i8], [8 x i8]* @.str, i64 0, i64 0), i32* %8, i32* %9, i8* %11)
  store i32 0, i32* %6, align 4
  br label %49

49:                                               ; preds = %79, %47
  %50 = load i32, i32* %6, align 4
  %51 = load i32, i32* %8, align 4
  %52 = sub nsw i32 %51, 1
  %53 = icmp sle i32 %50, %52
  br i1 %53, label %54, label %82

54:                                               ; preds = %49
  store i32 0, i32* %7, align 4
  br label %55

55:                                               ; preds = %75, %54
  %56 = load i32, i32* %7, align 4
  %57 = load i32, i32* %9, align 4
  %58 = icmp sle i32 %56, %57
  br i1 %58, label %59, label %78

59:                                               ; preds = %55
  %60 = load i32, i32* %7, align 4
  %61 = load i32, i32* %9, align 4
  %62 = sub nsw i32 %61, 1
  %63 = icmp sle i32 %60, %62
  br i1 %63, label %64, label %72

64:                                               ; preds = %59
  %65 = load i32, i32* %6, align 4
  %66 = sext i32 %65 to i64
  %67 = getelementptr inbounds [100 x [100 x i32]], [100 x [100 x i32]]* %4, i64 0, i64 %66
  %68 = load i32, i32* %7, align 4
  %69 = sext i32 %68 to i64
  %70 = getelementptr inbounds [100 x i32], [100 x i32]* %67, i64 0, i64 %69
  %71 = call i32 (i8*, ...) @__isoc99_scanf(i8* getelementptr inbounds ([3 x i8], [3 x i8]* @.str.1, i64 0, i64 0), i32* %70)
  br label %74

72:                                               ; preds = %59
  %73 = call i32 (i8*, ...) @__isoc99_scanf(i8* getelementptr inbounds ([3 x i8], [3 x i8]* @.str.2, i64 0, i64 0), i8* %11)
  br label %74

74:                                               ; preds = %72, %64
  br label %75

75:                                               ; preds = %74
  %76 = load i32, i32* %7, align 4
  %77 = add nsw i32 %76, 1
  store i32 %77, i32* %7, align 4
  br label %55

78:                                               ; preds = %55
  br label %79

79:                                               ; preds = %78
  %80 = load i32, i32* %6, align 4
  %81 = add nsw i32 %80, 1
  store i32 %81, i32* %6, align 4
  br label %49

82:                                               ; preds = %49
  store i32 0, i32* %6, align 4
  br label %83

83:                                               ; preds = %138, %82
  %84 = load i32, i32* %6, align 4
  %85 = load i32, i32* %1, align 4
  %86 = sub nsw i32 %85, 1
  %87 = icmp sle i32 %84, %86
  br i1 %87, label %88, label %141

88:                                               ; preds = %83
  store i32 0, i32* %7, align 4
  br label %89

89:                                               ; preds = %134, %88
  %90 = load i32, i32* %7, align 4
  %91 = load i32, i32* %9, align 4
  %92 = sub nsw i32 %91, 1
  %93 = icmp sle i32 %90, %92
  br i1 %93, label %94, label %137

94:                                               ; preds = %89
  store i32 0, i32* %10, align 4
  br label %95

95:                                               ; preds = %130, %94
  %96 = load i32, i32* %10, align 4
  %97 = load i32, i32* %2, align 4
  %98 = sub nsw i32 %97, 1
  %99 = icmp sle i32 %96, %98
  br i1 %99, label %100, label %133

100:                                              ; preds = %95
  %101 = load i32, i32* %6, align 4
  %102 = sext i32 %101 to i64
  %103 = getelementptr inbounds [100 x [100 x i32]], [100 x [100 x i32]]* %3, i64 0, i64 %102
  %104 = load i32, i32* %10, align 4
  %105 = sext i32 %104 to i64
  %106 = getelementptr inbounds [100 x i32], [100 x i32]* %103, i64 0, i64 %105
  %107 = load i32, i32* %106, align 4
  %108 = load i32, i32* %10, align 4
  %109 = sext i32 %108 to i64
  %110 = getelementptr inbounds [100 x [100 x i32]], [100 x [100 x i32]]* %4, i64 0, i64 %109
  %111 = load i32, i32* %7, align 4
  %112 = sext i32 %111 to i64
  %113 = getelementptr inbounds [100 x i32], [100 x i32]* %110, i64 0, i64 %112
  %114 = load i32, i32* %113, align 4
  %115 = mul nsw i32 %107, %114
  %116 = load i32, i32* %6, align 4
  %117 = sext i32 %116 to i64
  %118 = getelementptr inbounds [100 x [100 x i32]], [100 x [100 x i32]]* %5, i64 0, i64 %117
  %119 = load i32, i32* %7, align 4
  %120 = sext i32 %119 to i64
  %121 = getelementptr inbounds [100 x i32], [100 x i32]* %118, i64 0, i64 %120
  %122 = load i32, i32* %121, align 4
  %123 = add nsw i32 %115, %122
  %124 = load i32, i32* %6, align 4
  %125 = sext i32 %124 to i64
  %126 = getelementptr inbounds [100 x [100 x i32]], [100 x [100 x i32]]* %5, i64 0, i64 %125
  %127 = load i32, i32* %7, align 4
  %128 = sext i32 %127 to i64
  %129 = getelementptr inbounds [100 x i32], [100 x i32]* %126, i64 0, i64 %128
  store i32 %123, i32* %129, align 4
  br label %130

130:                                              ; preds = %100
  %131 = load i32, i32* %10, align 4
  %132 = add nsw i32 %131, 1
  store i32 %132, i32* %10, align 4
  br label %95

133:                                              ; preds = %95
  br label %134

134:                                              ; preds = %133
  %135 = load i32, i32* %7, align 4
  %136 = add nsw i32 %135, 1
  store i32 %136, i32* %7, align 4
  br label %89

137:                                              ; preds = %89
  br label %138

138:                                              ; preds = %137
  %139 = load i32, i32* %6, align 4
  %140 = add nsw i32 %139, 1
  store i32 %140, i32* %6, align 4
  br label %83

141:                                              ; preds = %83
  store i32 0, i32* %6, align 4
  br label %142

142:                                              ; preds = %181, %141
  %143 = load i32, i32* %6, align 4
  %144 = load i32, i32* %1, align 4
  %145 = sub nsw i32 %144, 1
  %146 = icmp sle i32 %143, %145
  br i1 %146, label %147, label %184

147:                                              ; preds = %142
  store i32 0, i32* %10, align 4
  br label %148

148:                                              ; preds = %177, %147
  %149 = load i32, i32* %10, align 4
  %150 = load i32, i32* %9, align 4
  %151 = sub nsw i32 %150, 1
  %152 = icmp sle i32 %149, %151
  br i1 %152, label %153, label %180

153:                                              ; preds = %148
  %154 = load i32, i32* %10, align 4
  %155 = load i32, i32* %9, align 4
  %156 = sub nsw i32 %155, 2
  %157 = icmp sle i32 %154, %156
  br i1 %157, label %158, label %167

158:                                              ; preds = %153
  %159 = load i32, i32* %6, align 4
  %160 = sext i32 %159 to i64
  %161 = getelementptr inbounds [100 x [100 x i32]], [100 x [100 x i32]]* %5, i64 0, i64 %160
  %162 = load i32, i32* %10, align 4
  %163 = sext i32 %162 to i64
  %164 = getelementptr inbounds [100 x i32], [100 x i32]* %161, i64 0, i64 %163
  %165 = load i32, i32* %164, align 4
  %166 = call i32 (i8*, ...) @printf(i8* getelementptr inbounds ([4 x i8], [4 x i8]* @.str.3, i64 0, i64 0), i32 %165)
  br label %176

167:                                              ; preds = %153
  %168 = load i32, i32* %6, align 4
  %169 = sext i32 %168 to i64
  %170 = getelementptr inbounds [100 x [100 x i32]], [100 x [100 x i32]]* %5, i64 0, i64 %169
  %171 = load i32, i32* %10, align 4
  %172 = sext i32 %171 to i64
  %173 = getelementptr inbounds [100 x i32], [100 x i32]* %170, i64 0, i64 %172
  %174 = load i32, i32* %173, align 4
  %175 = call i32 (i8*, ...) @printf(i8* getelementptr inbounds ([4 x i8], [4 x i8]* @.str.4, i64 0, i64 0), i32 %174)
  br label %176

176:                                              ; preds = %167, %158
  br label %177

177:                                              ; preds = %176
  %178 = load i32, i32* %10, align 4
  %179 = add nsw i32 %178, 1
  store i32 %179, i32* %10, align 4
  br label %148

180:                                              ; preds = %148
  br label %181

181:                                              ; preds = %180
  %182 = load i32, i32* %6, align 4
  %183 = add nsw i32 %182, 1
  store i32 %183, i32* %6, align 4
  br label %142

184:                                              ; preds = %142
  ret void
}

; Function Attrs: argmemonly nounwind willreturn
declare void @llvm.memset.p0i8.i64(i8* nocapture writeonly, i8, i64, i1 immarg) #1

declare dso_local i32 @__isoc99_scanf(i8*, ...) #2

declare dso_local i32 @printf(i8*, ...) #2


!llvm.module.flags = !{!0}
!llvm.ident = !{!1}

!0 = !{i32 1, !"wchar_size", i32 4}
!1 = !{!"clang version 10.0.0-4ubuntu1 "}
